ccopy_reg
_reconstructor
p0
(cnltk.classify.decisiontree
DecisionTreeClassifier
p1
c__builtin__
object
p2
Ntp3
Rp4
(dp5
S'_fname'
p6
S'contains(wildfire)'
p7
sS'_label'
p8
S'pos'
p9
sS'_decisions'
p10
(dp11
I00
g0
(g1
g2
Ntp12
Rp13
(dp14
g6
S'contains(fires)'
p15
sg8
S'neg'
p16
sg10
(dp17
I00
g0
(g1
g2
Ntp18
Rp19
(dp20
g6
S'contains(burn)'
p21
sg8
g16
sg10
(dp22
I00
g0
(g1
g2
Ntp23
Rp24
(dp25
g6
S'contains(destruction)'
p26
sg8
g16
sg10
(dp27
I00
g0
(g1
g2
Ntp28
Rp29
(dp30
g6
Nsg8
S'neg'
p31
sg10
NsS'_default'
p32
NsbsI01
g0
(g1
g2
Ntp33
Rp34
(dp35
g6
Nsg8
S'pos'
p36
sg10
Nsg32
Nsbssg32
NsbsI01
g0
(g1
g2
Ntp37
Rp38
(dp39
g6
S'contains(home)'
p40
sg8
S'pos'
p41
sg10
(dp42
I00
g0
(g1
g2
Ntp43
Rp44
(dp45
g6
Nsg8
S'pos'
p46
sg10
Nsg32
NsbsI01
g0
(g1
g2
Ntp47
Rp48
(dp49
g6
Nsg8
S'neg'
p50
sg10
Nsg32
Nsbssg32
Nsbssg32
NsbsI01
g0
(g1
g2
Ntp51
Rp52
(dp53
g6
S'contains(home)'
p54
sg8
S'neg'
p55
sg10
(dp56
I00
g0
(g1
g2
Ntp57
Rp58
(dp59
g6
Nsg8
g55
sg10
Nsg32
NsbsI01
g0
(g1
g2
Ntp60
Rp61
(dp62
g6
Nsg8
S'pos'
p63
sg10
Nsg32
Nsbssg32
Nsbssg32
NsbsI01
g0
(g1
g2
Ntp64
Rp65
(dp66
g6
Nsg8
S'pos'
p67
sg10
Nsg32
Nsbssg32
Nsb.